Certificate:
    Data:
        Version: 1 (0x0)
        Serial Number: 3 (0x3)
    Signature Algorithm: sha1WithRSAEncryption
        Issuer: O=TP7-redes, OU=redes/emailAddress=redes@redes.redes, L=Cordoba, ST=Cordoba, C=AR, CN=redes.sergiomartin.tp7
        Validity
            Not Before: Jun 14 16:31:17 2018 GMT
            Not After : Jun 14 16:31:17 2019 GMT
        Subject: C=AR, ST=Cordoba, O=TP7-redes, OU=redes, CN=strapi.matiasgaston.tp7/emailAddress=redes@redes.redes
        Subject Public Key Info:
            Public Key Algorithm: rsaEncryption
                Public-Key: (2048 bit)
                Modulus:
                    00:e1:d9:c8:24:6d:1d:40:07:cf:fd:8f:36:25:ae:
                    e2:66:43:d5:7c:43:d7:4a:1e:bc:d0:aa:49:9f:e9:
                    cb:0d:44:4b:52:de:5c:5a:2a:6e:7e:73:4f:70:0d:
                    d4:39:ac:42:9e:a3:b2:09:62:6c:13:40:04:dc:27:
                    97:21:fa:d4:04:0d:56:1f:96:3f:c3:e0:76:c6:57:
                    59:47:80:d8:88:98:37:58:71:14:40:34:4a:0d:c2:
                    fa:5c:3f:96:eb:cd:e6:e3:6a:74:1d:c5:29:ea:da:
                    7b:0d:45:39:de:d8:0c:f8:71:b0:be:41:a8:7c:fa:
                    fb:99:95:7a:75:6b:c4:54:05:76:17:fc:5c:ae:c8:
                    ad:20:52:89:13:e5:b3:fc:a0:18:86:d6:d1:4f:48:
                    44:10:a4:c7:5d:79:98:8d:95:1d:a0:50:89:fc:9d:
                    90:39:be:85:0e:88:9e:a9:36:08:4d:d4:47:f0:48:
                    6b:fb:73:07:51:1c:19:65:1b:de:19:9c:aa:4c:a2:
                    0b:14:56:56:a4:76:ab:09:67:d4:c4:18:70:69:96:
                    83:e5:05:2f:f5:91:8e:ad:c6:18:3a:f2:06:6c:b4:
                    fd:53:f8:28:e9:3d:80:0b:8e:b5:52:dd:01:7b:0c:
                    53:eb:23:89:22:b7:1f:c5:35:28:80:5c:8b:db:f5:
                    9c:05
                Exponent: 65537 (0x10001)
    Signature Algorithm: sha1WithRSAEncryption
         00:27:1d:7a:e8:93:6c:24:40:bc:01:93:0f:b9:2a:cd:d0:b2:
         f1:7a:83:37:5f:db:ec:5b:50:09:5e:b7:ea:61:13:74:2b:fe:
         c5:ed:f5:ab:5a:59:ad:e2:e3:d2:be:a4:7e:90:90:b3:40:a4:
         2e:93:73:0b:ba:22:57:58:39:c0:84:fe:de:b6:af:78:d4:d3:
         8b:71:5f:c0:3e:82:d7:ee:34:29:85:10:c6:c7:00:21:5b:1a:
         a8:e6:0b:bc:89:40:ba:d9:50:80:e9:80:98:e8:87:41:d1:e3:
         96:3b:04:b8:27:95:5f:22:ed:45:fc:90:75:ec:24:80:54:a5:
         a0:d3:62:37:0a:29:60:30:19:c8:8c:22:62:ac:d4:5d:ca:b4:
         7b:21:1e:97:84:4f:82:47:09:e8:28:79:26:0b:03:97:04:82:
         38:34:4a:de:74:4a:c3:91:82:1c:19:09:69:b1:91:ca:a2:b0:
         0a:e6:db:3a:87:02:1b:68:e5:c3:f5:27:02:53:71:b1:ab:eb:
         23:23:d7:7f:79:b0:5a:a7:ad:09:23:79:18:dd:ed:f5:bd:db:
         75:cc:e6:28:49:a8:de:1c:87:42:57:ed:ed:9a:91:ae:0b:5a:
         9e:df:79:79:e6:25:d3:6e:06:eb:a8:2a:e0:ca:e1:c4:e4:9c:
         ec:44:47:fb
-----BEGIN CERTIFICATE-----
MIIDlTCCAn0CAQMwDQYJKoZIhvcNAQEFBQAwgZgxEjAQBgNVBAoTCVRQNy1yZWRl
czEOMAwGA1UECxMFcmVkZXMxIDAeBgkqhkiG9w0BCQEWEXJlZGVzQHJlZGVzLnJl
ZGVzMRAwDgYDVQQHEwdDb3Jkb2JhMRAwDgYDVQQIEwdDb3Jkb2JhMQswCQYDVQQG
EwJBUjEfMB0GA1UEAxMWcmVkZXMuc2VyZ2lvbWFydGluLnRwNzAeFw0xODA2MTQx
NjMxMTdaFw0xOTA2MTQxNjMxMTdaMIGHMQswCQYDVQQGEwJBUjEQMA4GA1UECBMH
Q29yZG9iYTESMBAGA1UEChMJVFA3LXJlZGVzMQ4wDAYDVQQLEwVyZWRlczEgMB4G
A1UEAxMXc3RyYXBpLm1hdGlhc2dhc3Rvbi50cDcxIDAeBgkqhkiG9w0BCQEWEXJl
ZGVzQHJlZGVzLnJlZGVzMIIBIjANBgkqhkiG9w0BAQEFAAOCAQ8AMIIBCgKCAQEA
4dnIJG0dQAfP/Y82Ja7iZkPVfEPXSh680KpJn+nLDURLUt5cWipufnNPcA3UOaxC
nqOyCWJsE0AE3CeXIfrUBA1WH5Y/w+B2xldZR4DYiJg3WHEUQDRKDcL6XD+W683m
42p0HcUp6tp7DUU53tgM+HGwvkGofPr7mZV6dWvEVAV2F/xcrsitIFKJE+Wz/KAY
htbRT0hEEKTHXXmYjZUdoFCJ/J2QOb6FDoieqTYITdRH8Ehr+3MHURwZZRveGZyq
TKILFFZWpHarCWfUxBhwaZaD5QUv9ZGOrcYYOvIGbLT9U/go6T2AC461Ut0BewxT
6yOJIrcfxTUogFyL2/WcBQIDAQABMA0GCSqGSIb3DQEBBQUAA4IBAQAAJx166JNs
JEC8AZMPuSrN0LLxeoM3X9vsW1AJXrfqYRN0K/7F7fWrWlmt4uPSvqR+kJCzQKQu
k3MLuiJXWDnAhP7etq941NOLcV/APoLX7jQphRDGxwAhWxqo5gu8iUC62VCA6YCY
6IdB0eOWOwS4J5VfIu1F/JB17CSAVKWg02I3CilgMBnIjCJirNRdyrR7IR6XhE+C
RwnoKHkmCwOXBII4NEredErDkYIcGQlpsZHKorAK5ts6hwIbaOXD9ScCU3Gxq+sj
I9d/ebBap60JI3kY3e31vdt1zOYoSajeHIdCV+3tmpGuC1qe33l55iXTbgbrqCrg
yuHE5JzsREf7
-----END CERTIFICATE-----
