Certificate:
    Data:
        Version: 1 (0x0)
        Serial Number: 3 (0x3)
    Signature Algorithm: sha1WithRSAEncryption
        Issuer: O=TP7-redes, OU=redes/emailAddress=redes@redes.redes, L=Cordoba, ST=Cordoba, C=AR, CN=redes.sergiomartin.tp7
        Validity
            Not Before: Jun 20 05:19:59 2018 GMT
            Not After : Jun 20 05:19:59 2019 GMT
        Subject: C=AR, ST=Cordoba, O=TP7-redes, OU=redes, CN=strapi.sergiomartin.tp7/emailAddress=redes@redes.tp7
        Subject Public Key Info:
            Public Key Algorithm: rsaEncryption
                Public-Key: (2048 bit)
                Modulus:
                    00:f2:83:38:cd:1d:57:b6:bd:70:d5:b1:22:83:57:
                    a9:85:56:a1:dd:28:d5:1b:7c:1f:df:76:f4:df:4d:
                    28:29:00:5b:e3:7d:f4:a8:e9:3f:9a:ab:3c:90:fd:
                    a8:8c:2a:77:24:8a:cc:d0:da:35:ca:e6:a5:62:65:
                    ca:12:48:ef:72:5e:23:ae:35:67:53:c5:c7:93:f7:
                    76:4d:0f:0c:ff:59:89:08:18:0c:3c:a2:c4:4b:74:
                    d6:57:d8:ea:db:4a:52:d7:9f:6e:eb:77:e8:67:a4:
                    59:e7:49:b4:27:6c:99:10:2e:94:b2:5f:d8:a9:34:
                    72:9f:bd:4f:7d:b1:b1:42:07:df:80:a7:26:fe:4f:
                    f3:01:db:e8:6e:8f:2e:85:6f:f6:80:00:f1:24:52:
                    67:e4:54:2c:4f:6e:9a:c7:11:4e:51:8d:5e:17:da:
                    b6:89:9c:4b:0f:ad:48:69:11:6e:65:7d:aa:1b:63:
                    11:b8:e3:d8:c1:c6:04:d2:1f:1e:1d:1f:0e:41:2a:
                    f8:7d:53:e3:7c:c1:8e:b2:ee:d1:c8:c5:52:fa:1a:
                    1d:7b:41:88:ef:4f:33:2b:2d:dd:8d:44:2a:0c:8f:
                    aa:aa:5a:c0:9c:56:32:b5:3f:c6:8c:27:8b:55:7a:
                    15:09:06:e2:11:3d:a6:a1:19:22:6a:86:d6:2e:45:
                    0c:e1
                Exponent: 65537 (0x10001)
    Signature Algorithm: sha1WithRSAEncryption
         5d:88:7b:70:0c:0a:52:e7:90:a3:b3:11:1b:9d:9e:76:c0:b2:
         01:db:01:8a:cf:7b:94:33:7e:ad:7f:6c:fd:07:63:36:5a:a8:
         56:2c:b6:84:c4:87:66:1a:c4:4f:f8:08:c1:ca:5e:4c:e3:d1:
         26:23:21:59:16:a0:65:8a:6f:7a:e7:4e:96:ac:a2:ec:f8:c9:
         fd:40:59:eb:d9:a1:69:bd:89:7f:91:64:8c:c4:6f:f5:2b:82:
         75:99:7a:ef:7c:55:46:15:0b:01:5e:43:6b:37:5f:5e:b9:79:
         72:93:4d:f2:8a:28:39:52:b4:3d:f0:95:80:d8:58:2e:83:f1:
         6a:07:d8:20:d1:16:24:6d:12:67:d7:19:48:af:3e:c2:d9:fa:
         89:b0:d0:e7:1a:08:1c:1f:8c:04:a6:17:49:26:57:b8:01:2d:
         ee:1c:2c:04:60:0f:20:44:b3:ba:b9:ff:70:35:71:4e:63:24:
         e0:c0:f6:b9:6f:2c:38:5c:01:e7:ea:8b:2a:db:b2:e9:76:f1:
         e1:b3:c6:44:74:3e:08:d4:78:c2:f4:c7:aa:f9:63:0f:b3:ba:
         d8:f1:f3:66:22:e3:41:ab:8a:b0:ee:a0:72:32:6b:b1:79:9c:
         e5:77:08:64:85:c4:8d:8c:e1:cd:6f:ff:90:02:6b:c6:5a:81:
         de:29:17:14
-----BEGIN CERTIFICATE-----
MIIDkzCCAnsCAQMwDQYJKoZIhvcNAQEFBQAwgZgxEjAQBgNVBAoTCVRQNy1yZWRl
czEOMAwGA1UECxMFcmVkZXMxIDAeBgkqhkiG9w0BCQEWEXJlZGVzQHJlZGVzLnJl
ZGVzMRAwDgYDVQQHEwdDb3Jkb2JhMRAwDgYDVQQIEwdDb3Jkb2JhMQswCQYDVQQG
EwJBUjEfMB0GA1UEAxMWcmVkZXMuc2VyZ2lvbWFydGluLnRwNzAeFw0xODA2MjAw
NTE5NTlaFw0xOTA2MjAwNTE5NTlaMIGFMQswCQYDVQQGEwJBUjEQMA4GA1UECBMH
Q29yZG9iYTESMBAGA1UEChMJVFA3LXJlZGVzMQ4wDAYDVQQLEwVyZWRlczEgMB4G
A1UEAxMXc3RyYXBpLnNlcmdpb21hcnRpbi50cDcxHjAcBgkqhkiG9w0BCQEWD3Jl
ZGVzQHJlZGVzLnRwNzCCASIwDQYJKoZIhvcNAQEBBQADggEPADCCAQoCggEBAPKD
OM0dV7a9cNWxIoNXqYVWod0o1Rt8H9929N9NKCkAW+N99KjpP5qrPJD9qIwqdySK
zNDaNcrmpWJlyhJI73JeI641Z1PFx5P3dk0PDP9ZiQgYDDyixEt01lfY6ttKUtef
but36GekWedJtCdsmRAulLJf2Kk0cp+9T32xsUIH34CnJv5P8wHb6G6PLoVv9oAA
8SRSZ+RULE9umscRTlGNXhfatomcSw+tSGkRbmV9qhtjEbjj2MHGBNIfHh0fDkEq
+H1T43zBjrLu0cjFUvoaHXtBiO9PMyst3Y1EKgyPqqpawJxWMrU/xowni1V6FQkG
4hE9pqEZImqG1i5FDOECAwEAATANBgkqhkiG9w0BAQUFAAOCAQEAXYh7cAwKUueQ
o7MRG52edsCyAdsBis97lDN+rX9s/QdjNlqoViy2hMSHZhrET/gIwcpeTOPRJiMh
WRagZYpveudOlqyi7PjJ/UBZ69mhab2Jf5FkjMRv9SuCdZl673xVRhULAV5Dazdf
Xrl5cpNN8oooOVK0PfCVgNhYLoPxagfYINEWJG0SZ9cZSK8+wtn6ibDQ5xoIHB+M
BKYXSSZXuAEt7hwsBGAPIESzurn/cDVxTmMk4MD2uW8sOFwB5+qLKtuy6Xbx4bPG
RHQ+CNR4wvTHqvljD7O62PHzZiLjQauKsO6gcjJrsXmc5XcIZIXEjYzhzW//kAJr
xlqB3ikXFA==
-----END CERTIFICATE-----
