Certificate:
    Data:
        Version: 1 (0x0)
        Serial Number: 2 (0x2)
    Signature Algorithm: sha1WithRSAEncryption
        Issuer: O=TP7-redes, OU=redes/emailAddress=redes@redes.redes, L=Cordoba, ST=Cordoba, C=AR, CN=redes.sergiomartin.tp7
        Validity
            Not Before: Jun  8 00:00:13 2018 GMT
            Not After : Jun  5 00:00:13 2028 GMT
        Subject: C=AR, ST=Cordoba, O=TP7-redes, OU=redes, CN=redes.sergiomartin.tp7/emailAddress=redes@redes.redes
        Subject Public Key Info:
            Public Key Algorithm: rsaEncryption
                Public-Key: (2048 bit)
                Modulus:
                    00:e1:33:4f:af:3d:45:81:b2:91:9a:1c:bf:55:f8:
                    15:5b:fd:19:85:2d:34:c8:da:f6:62:0b:8d:44:7f:
                    0b:98:02:37:48:83:b8:3a:c3:c0:21:44:2d:52:c8:
                    2b:c8:bd:50:e7:1d:6a:d2:36:ca:ec:d8:7e:06:cb:
                    a5:30:f4:fd:8c:fc:2c:9e:b9:a5:e6:b0:02:90:9e:
                    b6:80:c1:70:c4:c1:80:ca:d6:06:11:d2:84:7f:60:
                    b0:85:ae:a6:79:b4:18:19:e1:a3:ab:9d:c6:4b:89:
                    48:d4:f7:c9:23:c1:cc:a5:7f:30:a5:7e:75:c5:0a:
                    da:21:d5:10:3d:ed:b9:ac:17:7c:d3:e4:ff:51:6a:
                    d8:d5:c7:58:20:59:a3:34:41:e1:c5:b2:63:a9:c7:
                    9e:88:21:67:89:1d:11:0e:19:bc:c6:bd:f1:03:af:
                    d9:5f:45:0d:3f:2c:a2:f5:6b:4d:bb:e3:40:f2:82:
                    06:7a:c4:83:07:64:2c:3d:b9:20:46:d8:0a:15:99:
                    be:00:dd:37:84:b1:44:58:2c:c0:95:56:bc:dd:0f:
                    ba:be:d4:d2:ad:b6:76:c6:0c:6a:33:57:cd:34:10:
                    3d:dd:1c:1c:92:60:78:b2:96:1f:85:da:ee:39:dd:
                    ea:b2:93:9d:71:de:0c:a8:22:2d:a0:3a:e2:9b:dc:
                    2e:a1
                Exponent: 65537 (0x10001)
    Signature Algorithm: sha1WithRSAEncryption
         54:5b:12:26:b6:42:bf:d3:4f:fc:bc:43:ac:65:ba:a7:ed:c5:
         41:71:9a:d9:9b:af:d3:b4:9b:de:f4:b8:51:84:ad:12:68:e4:
         cd:2e:eb:2e:eb:5d:af:c5:ee:8c:a1:87:ef:29:5e:df:3f:ad:
         24:de:1b:7a:d0:c6:cf:73:17:f6:d3:a0:f4:e4:47:a6:02:af:
         6e:5a:54:bd:82:fe:15:d5:3b:3b:52:ba:80:5f:03:96:e0:0e:
         73:08:ef:cd:d7:56:0e:e9:fc:13:6e:09:45:bb:45:23:f6:3e:
         30:f9:05:16:6b:49:14:dd:8d:b8:18:95:b7:f8:f1:e6:58:44:
         27:4c:ff:1e:56:59:d3:27:69:97:81:e7:13:77:29:4b:b9:49:
         f4:aa:50:bd:f0:60:10:ad:cf:08:c7:2f:3c:d8:44:a8:31:fe:
         1b:7b:6d:d4:84:e3:89:20:c3:0f:d5:40:ae:7b:ba:2e:31:2c:
         95:1d:e6:0e:d8:09:78:77:75:06:ab:04:b1:76:d0:db:6b:22:
         45:44:4e:3d:df:75:33:5b:ef:db:c1:e5:17:b7:99:61:51:37:
         83:ac:ed:8b:e8:3b:3e:4d:25:d8:e3:22:f5:73:9c:56:bd:56:
         81:c8:4d:20:98:9e:f9:92:ba:93:0a:7e:78:db:6f:d2:ff:50:
         3a:10:32:f7
-----BEGIN CERTIFICATE-----
MIIDlDCCAnwCAQIwDQYJKoZIhvcNAQEFBQAwgZgxEjAQBgNVBAoTCVRQNy1yZWRl
czEOMAwGA1UECxMFcmVkZXMxIDAeBgkqhkiG9w0BCQEWEXJlZGVzQHJlZGVzLnJl
ZGVzMRAwDgYDVQQHEwdDb3Jkb2JhMRAwDgYDVQQIEwdDb3Jkb2JhMQswCQYDVQQG
EwJBUjEfMB0GA1UEAxMWcmVkZXMuc2VyZ2lvbWFydGluLnRwNzAeFw0xODA2MDgw
MDAwMTNaFw0yODA2MDUwMDAwMTNaMIGGMQswCQYDVQQGEwJBUjEQMA4GA1UECBMH
Q29yZG9iYTESMBAGA1UEChMJVFA3LXJlZGVzMQ4wDAYDVQQLEwVyZWRlczEfMB0G
A1UEAxMWcmVkZXMuc2VyZ2lvbWFydGluLnRwNzEgMB4GCSqGSIb3DQEJARYRcmVk
ZXNAcmVkZXMucmVkZXMwggEiMA0GCSqGSIb3DQEBAQUAA4IBDwAwggEKAoIBAQDh
M0+vPUWBspGaHL9V+BVb/RmFLTTI2vZiC41EfwuYAjdIg7g6w8AhRC1SyCvIvVDn
HWrSNsrs2H4Gy6Uw9P2M/CyeuaXmsAKQnraAwXDEwYDK1gYR0oR/YLCFrqZ5tBgZ
4aOrncZLiUjU98kjwcylfzClfnXFCtoh1RA97bmsF3zT5P9RatjVx1ggWaM0QeHF
smOpx56IIWeJHREOGbzGvfEDr9lfRQ0/LKL1a02740DyggZ6xIMHZCw9uSBG2AoV
mb4A3TeEsURYLMCVVrzdD7q+1NKttnbGDGozV800ED3dHBySYHiylh+F2u453eqy
k51x3gyoIi2gOuKb3C6hAgMBAAEwDQYJKoZIhvcNAQEFBQADggEBAFRbEia2Qr/T
T/y8Q6xluqftxUFxmtmbr9O0m970uFGErRJo5M0u6y7rXa/F7oyhh+8pXt8/rSTe
G3rQxs9zF/bToPTkR6YCr25aVL2C/hXVOztSuoBfA5bgDnMI783XVg7p/BNuCUW7
RSP2PjD5BRZrSRTdjbgYlbf48eZYRCdM/x5WWdMnaZeB5xN3KUu5SfSqUL3wYBCt
zwjHLzzYRKgx/ht7bdSE44kgww/VQK57ui4xLJUd5g7YCXh3dQarBLF20NtrIkVE
Tj3fdTNb79vB5Re3mWFRN4Os7YvoOz5NJdjjIvVznFa9VoHITSCYnvmSupMKfnjb
b9L/UDoQMvc=
-----END CERTIFICATE-----
